(lp0
(F1.7969999999999999
F0.39700000000000002
tp1
a(F1.653
F0.77600000000000002
tp2
a(F1.4299999999999999
F0.88300000000000001
tp3
a(F1.004
F0.377
tp4
a(F1.0569999999999999
F0.57699999999999996
tp5
a(F1.377
F0.70299999999999996
tp6
a(F0.79000000000000004
F1.0429999999999999
tp7
a(F0.78400000000000003
F0.76300000000000001
tp8
a(F2.5299999999999998
F0.72999999999999998
tp9
a(F2.7440000000000002
F0.79000000000000004
tp10
a(F2.5299999999999998
F0.39700000000000002
tp11
a(F2.8239999999999998
F0.60999999999999999
tp12
a(F1.6240000000000001
F1.2769999999999999
tp13
a(F1.417
F1.3899999999999999
tp14
a(F1.1839999999999999
F1.51
tp15
a(F0.82399999999999995
F1.7030000000000001
tp16
a(F2.0699999999999998
F1.083
tp17
a(F2.004
F1.7569999999999999
tp18
a(F2.351
F1.173
tp19
a(F2.2639999999999998
F1.373
tp20
a(F2.3780000000000001
F1.3129999999999999
tp21
a(F2.6579999999999999
F1.639
tp22
a(F2.5649999999999999
F2.476
tp23
a(F2.589
F2.278
tp24
a(F2.1139999999999999
F2.1850000000000001
tp25
a(F2.0720000000000001
F2.3300000000000001
tp26
a(F2.2250000000000001
F2.258
tp27
a(F1.9379999999999999
F1.847
tp28
a(F1.8149999999999999
F1.8109999999999999
tp29
a(F1.6539999999999999
F2.0150000000000001
tp30
a(F1.7589999999999999
F1.9830000000000001
tp31
a(F1.3100000000000001
F2.0110000000000001
tp32
a(F1.3260000000000001
F2.6579999999999999
tp33
a(F1.2190000000000001
F2.8799999999999999
tp34
a(F1.512
F2.8130000000000002
tp35
a(F2.3199999999999998
F2.9910000000000001
tp36
a(F2.3140000000000001
F3.3889999999999998
tp37
a(F2.1909999999999998
F3.339
tp38
a(F1.7969999999999999
F3.9409999999999998
tp39
a(F2.6440000000000001
F4.2919999999999998
tp40
a(F3.577
F4.3200000000000003
tp41
a(F4.1769999999999996
F2.6960000000000002
tp42
a(F3.8519999999999999
F2.3889999999999998
tp43
a(F4.1989999999999998
F1.702
tp44
a(F2.8069999999999999
F2.2999999999999998
tp45
a(F2.774
F2.02
tp46
a(F2.7610000000000001
F1.8999999999999999
tp47
a(F2.2770000000000001
F1.837
tp48
a(F2.23
F1.97
tp49
a(F2.5299999999999998
F1.9299999999999999
tp50
a(F2.6699999999999999
F1.79
tp51
a(F1.633
F1.498
tp52
a(F1.7869999999999999
F1.331
tp53
a(F1.827
F1.431
tp54
a(F2.5569999999999999
F0.25
tp55
a(F2.29
F0.050000000000000003
tp56
a(F2.2370000000000001
F0.437
tp57
a(F2.0840000000000001
F0.71699999999999997
tp58
a(F2.4169999999999998
F0.91700000000000004
tp59
a(F2.2170000000000001
F0.91700000000000004
tp60
a(F1.552
F1.079
tp61
a(F1.2569999999999999
F1.2170000000000001
tp62
a(F1.4039999999999999
F1.2769999999999999
tp63
a(F0.93700000000000006
F1.4770000000000001
tp64
a(F0.877
F1.23
tp65
a(F0.65000000000000002
F1.677
tp66
a(F0.157
F1.9099999999999999
tp67
a(F0.55000000000000004
F2.0369999999999999
tp68
a(F1.024
F1.7629999999999999
tp69
a(F1.1970000000000001
F1.8300000000000001
tp70
a(F1.3700000000000001
F1.6830000000000001
tp71
a(F1.524
F1.75
tp72
a(F1.524
F1.617
tp73
a(F1.677
F1.663
tp74
a(F1.8899999999999999
F2.3170000000000002
tp75
a(F2.0720000000000001
F2.5299999999999998
tp76
a(F2.8410000000000002
F3.3290000000000002
tp77
a(F0.51000000000000001
F1.423
tp78
a(F2.0369999999999999
F0.87
tp79
a(F1.2170000000000001
F2.2050000000000001
tp80
a.